target datalayout = "e-m:e-p270:32:32-p271:32:32-p272:64:64-i64:64-i128:128-f80:128-n8:16:32:64-S128"
target triple = "x86_64-pc-linux-gnu"

%"class.llvm::sampleprof::FunctionId" = type { ptr, i64 }
%"struct.std::__detail::_Hash_node_base" = type { ptr }
%"struct.std::__detail::_Prime_rehash_policy" = type { float, i64 }
%"class.llvm::SampleProfileMatcher" = type { ptr, ptr, ptr, ptr, i32, %"class.llvm::sampleprof::SampleProfileMap", %"class.llvm::StringMap", %"class.llvm::StringMap.83", %"class.std::unordered_map.84", %"class.std::unordered_map.102", ptr, ptr, %"class.llvm::sampleprof::HashKeyMap.121", %"class.std::shared_ptr", i64, i64, i64, i64, i64, i64, i64, i64, i64, i64, i64 }
%"class.llvm::sampleprof::SampleProfileMap" = type { %"class.llvm::sampleprof::HashKeyMap" }
%"class.llvm::sampleprof::HashKeyMap" = type { %"class.std::unordered_map.64" }
%"class.std::unordered_map.64" = type { %"class.std::_Hashtable.65" }
%"class.std::_Hashtable.65" = type { ptr, i64, %"struct.std::__detail::_Hash_node_base", i64, %"struct.std::__detail::_Prime_rehash_policy", ptr }
%"class.llvm::StringMap" = type { %"class.llvm::StringMapImpl" }
%"class.llvm::StringMapImpl" = type { ptr, i32, i32, i32, i32 }
%"class.llvm::StringMap.83" = type { %"class.llvm::StringMapImpl" }
%"class.std::unordered_map.84" = type { %"class.std::_Hashtable.85" }
%"class.std::_Hashtable.85" = type { ptr, i64, %"struct.std::__detail::_Hash_node_base", i64, %"struct.std::__detail::_Prime_rehash_policy", ptr }
%"class.std::unordered_map.102" = type { %"class.std::_Hashtable.103" }
%"class.std::_Hashtable.103" = type { ptr, i64, %"struct.std::__detail::_Hash_node_base", i64, %"struct.std::__detail::_Prime_rehash_policy", ptr }
%"class.llvm::sampleprof::HashKeyMap.121" = type { %"class.std::unordered_map.122" }
%"class.std::unordered_map.122" = type { %"class.std::_Hashtable.123" }
%"class.std::_Hashtable.123" = type { ptr, i64, %"struct.std::__detail::_Hash_node_base", i64, %"struct.std::__detail::_Prime_rehash_policy", ptr }
%"class.std::shared_ptr" = type { %"class.std::__shared_ptr" }
%"class.std::__shared_ptr" = type { ptr, %"class.std::__shared_count" }
%"class.std::__shared_count" = type { ptr }
%"struct.std::__detail::_Node_iterator.422" = type { %"struct.std::__detail::_Node_iterator_base.423" }
%"struct.std::__detail::_Node_iterator_base.423" = type { ptr }
%"struct.std::pair.424" = type { ptr, %"class.llvm::sampleprof::FunctionId" }
%"struct.std::pair.426" = type <{ %"struct.std::pair.424", i8, [7 x i8] }>
%"struct.std::__detail::_Hash_node_value_base.688" = type { %"struct.__gnu_cxx::__aligned_buffer.689" }
%"struct.__gnu_cxx::__aligned_buffer.689" = type { %"union.std::aligned_storage<32, 8>::type" }
%"union.std::aligned_storage<32, 8>::type" = type { [32 x i8] }

; Function Attrs: mustprogress nounwind uwtable
define linkonce_odr hidden noundef ptr @_ZN9__gnu_cxx16__aligned_bufferISt4pairIKS1_IPKN4llvm8FunctionENS2_10sampleprof10FunctionIdEEbEE7_M_addrEv(ptr noundef nonnull align 8 dereferenceable(32) %0) #1 comdat align 2 {
  %2 = alloca ptr, align 8
  store ptr %0, ptr %2, align 8
  %3 = load ptr, ptr %2, align 8
  %4 = getelementptr inbounds nuw %"struct.__gnu_cxx::__aligned_buffer.689", ptr %3, i32 0, i32 0
  ret ptr %4
}

; Function Attrs: mustprogress nounwind uwtable
define linkonce_odr hidden void @_ZNSt8__detail19_Node_iterator_baseISt4pairIKS1_IPKN4llvm8FunctionENS2_10sampleprof10FunctionIdEEbELb1EEC2EPNS_10_Hash_nodeISA_Lb1EEE(ptr noundef nonnull align 8 dereferenceable(8) %0, ptr noundef %1) unnamed_addr #1 comdat align 2 {
  %3 = alloca ptr, align 8
  %4 = alloca ptr, align 8
  store ptr %0, ptr %3, align 8
  store ptr %1, ptr %4, align 8
  %5 = load ptr, ptr %3, align 8
  %6 = getelementptr inbounds nuw %"struct.std::__detail::_Node_iterator_base.423", ptr %5, i32 0, i32 0
  %7 = load ptr, ptr %4, align 8
  store ptr %7, ptr %6, align 8
  ret void
}

; Function Attrs: mustprogress nounwind uwtable
define linkonce_odr hidden noundef ptr @_ZN9__gnu_cxx16__aligned_bufferISt4pairIKS1_IPKN4llvm8FunctionENS2_10sampleprof10FunctionIdEEbEE6_M_ptrEv(ptr noundef nonnull align 8 dereferenceable(32) %0) #1 comdat align 2 {
  %2 = alloca ptr, align 8
  store ptr %0, ptr %2, align 8
  %3 = load ptr, ptr %2, align 8
  %4 = call noundef ptr @_ZN9__gnu_cxx16__aligned_bufferISt4pairIKS1_IPKN4llvm8FunctionENS2_10sampleprof10FunctionIdEEbEE7_M_addrEv(ptr noundef nonnull align 8 dereferenceable(32) %3) #2
  ret ptr %4
}

; Function Attrs: mustprogress nounwind uwtable
define linkonce_odr hidden void @_ZNSt8__detail14_Node_iteratorISt4pairIKS1_IPKN4llvm8FunctionENS2_10sampleprof10FunctionIdEEbELb0ELb1EEC2EPNS_10_Hash_nodeISA_Lb1EEE(ptr noundef nonnull align 8 dereferenceable(8) %0, ptr noundef %1) unnamed_addr #1 comdat align 2 {
  %3 = alloca ptr, align 8
  %4 = alloca ptr, align 8
  store ptr %0, ptr %3, align 8
  store ptr %1, ptr %4, align 8
  %5 = load ptr, ptr %3, align 8
  %6 = load ptr, ptr %4, align 8
  call void @_ZNSt8__detail19_Node_iterator_baseISt4pairIKS1_IPKN4llvm8FunctionENS2_10sampleprof10FunctionIdEEbELb1EEC2EPNS_10_Hash_nodeISA_Lb1EEE(ptr noundef nonnull align 8 dereferenceable(8) %5, ptr noundef %6) #2
  ret void
}

; Function Attrs: mustprogress nounwind uwtable
define linkonce_odr hidden noundef ptr @_ZNSt8__detail21_Hash_node_value_baseISt4pairIKS1_IPKN4llvm8FunctionENS2_10sampleprof10FunctionIdEEbEE9_M_valptrEv(ptr noundef nonnull align 8 dereferenceable(32) %0) #1 comdat align 2 {
  %2 = alloca ptr, align 8
  store ptr %0, ptr %2, align 8
  %3 = load ptr, ptr %2, align 8
  %4 = getelementptr inbounds nuw %"struct.std::__detail::_Hash_node_value_base.688", ptr %3, i32 0, i32 0
  %5 = call noundef ptr @_ZN9__gnu_cxx16__aligned_bufferISt4pairIKS1_IPKN4llvm8FunctionENS2_10sampleprof10FunctionIdEEbEE6_M_ptrEv(ptr noundef nonnull align 8 dereferenceable(32) %4) #2
  ret ptr %5
}

; Function Attrs: mustprogress nounwind uwtable
define linkonce_odr hidden ptr @_ZNSt10_HashtableISt4pairIPKN4llvm8FunctionENS1_10sampleprof10FunctionIdEES0_IKS7_bESaIS9_ENSt8__detail10_Select1stESt8equal_toIS7_ENS1_20SampleProfileMatcher24FuncToProfileNameMapHashENSB_18_Mod_range_hashingENSB_20_Default_ranged_hashENSB_20_Prime_rehash_policyENSB_17_Hashtable_traitsILb1ELb0ELb1EEEE3endEv(ptr noundef nonnull align 8 dereferenceable(56) %0) #1 comdat align 2 {
  %2 = alloca %"struct.std::__detail::_Node_iterator.422", align 8
  %3 = alloca ptr, align 8
  store ptr %0, ptr %3, align 8
  call void @_ZNSt8__detail14_Node_iteratorISt4pairIKS1_IPKN4llvm8FunctionENS2_10sampleprof10FunctionIdEEbELb0ELb1EEC2EPNS_10_Hash_nodeISA_Lb1EEE(ptr noundef nonnull align 8 dereferenceable(8) %2, ptr noundef null) #2
  %4 = getelementptr inbounds nuw %"struct.std::__detail::_Node_iterator.422", ptr %2, i32 0, i32 0
  %5 = getelementptr inbounds nuw %"struct.std::__detail::_Node_iterator_base.423", ptr %4, i32 0, i32 0
  %6 = load ptr, ptr %5, align 8
  ret ptr %6
}

; Function Attrs: mustprogress nounwind uwtable
define linkonce_odr hidden noundef nonnull align 8 dereferenceable(16) ptr @_ZNSt13unordered_mapIPN4llvm8FunctionENS0_10sampleprof10FunctionIdESt4hashIS2_ESt8equal_toIS2_ESaISt4pairIKS2_S4_EEEixEOS2_(ptr noundef nonnull align 8 dereferenceable(56) %0, ptr noundef nonnull align 8 dereferenceable(8) %1) #1 comdat align 2 {
  %3 = alloca ptr, align 8
  %4 = alloca ptr, align 8
  store ptr %0, ptr %3, align 8
  store ptr %1, ptr %4, align 8
  %5 = load ptr, ptr %3, align 8
  %6 = getelementptr inbounds nuw %"class.std::unordered_map.102", ptr %5, i32 0, i32 0
  %7 = load ptr, ptr %4, align 8
  %8 = call noundef nonnull align 8 dereferenceable(16) ptr @_ZNSt8__detail9_Map_baseIPN4llvm8FunctionESt4pairIKS3_NS1_10sampleprof10FunctionIdEESaIS8_ENS_10_Select1stESt8equal_toIS3_ESt4hashIS3_ENS_18_Mod_range_hashingENS_20_Default_ranged_hashENS_20_Prime_rehash_policyENS_17_Hashtable_traitsILb0ELb0ELb1EEELb1EEixEOS3_(ptr noundef nonnull align 1 dereferenceable(1) %6, ptr noundef nonnull align 8 dereferenceable(8) %7)
  ret ptr %8
}

; Function Attrs: mustprogress nounwind uwtable
define linkonce_odr hidden noundef nonnull align 1 dereferenceable(1) ptr @_ZNSt13unordered_mapISt4pairIPKN4llvm8FunctionENS1_10sampleprof10FunctionIdEEbNS1_20SampleProfileMatcher24FuncToProfileNameMapHashESt8equal_toIS7_ESaIS0_IKS7_bEEEixEOS7_(ptr noundef nonnull align 8 dereferenceable(56) %0, ptr noundef nonnull align 8 dereferenceable(24) %1) #1 comdat align 2 {
  %3 = alloca ptr, align 8
  %4 = alloca ptr, align 8
  store ptr %0, ptr %3, align 8
  store ptr %1, ptr %4, align 8
  %5 = load ptr, ptr %3, align 8
  %6 = getelementptr inbounds nuw %"class.std::unordered_map.84", ptr %5, i32 0, i32 0
  %7 = load ptr, ptr %4, align 8
  %8 = call noundef nonnull align 1 dereferenceable(1) ptr @_ZNSt8__detail9_Map_baseISt4pairIPKN4llvm8FunctionENS2_10sampleprof10FunctionIdEES1_IKS8_bESaISA_ENS_10_Select1stESt8equal_toIS8_ENS2_20SampleProfileMatcher24FuncToProfileNameMapHashENS_18_Mod_range_hashingENS_20_Default_ranged_hashENS_20_Prime_rehash_policyENS_17_Hashtable_traitsILb1ELb0ELb1EEELb1EEixEOS8_(ptr noundef nonnull align 1 dereferenceable(1) %6, ptr noundef nonnull align 8 dereferenceable(24) %7)
  ret ptr %8
}

; Function Attrs: mustprogress nounwind uwtable
define linkonce_odr hidden noundef ptr @_ZNKSt8__detail14_Node_iteratorISt4pairIKS1_IPKN4llvm8FunctionENS2_10sampleprof10FunctionIdEEbELb0ELb1EEptEv(ptr noundef nonnull align 8 dereferenceable(8) %0) #1 comdat align 2 {
  %2 = alloca ptr, align 8
  store ptr %0, ptr %2, align 8
  %3 = load ptr, ptr %2, align 8
  %4 = getelementptr inbounds nuw %"struct.std::__detail::_Node_iterator_base.423", ptr %3, i32 0, i32 0
  %5 = load ptr, ptr %4, align 8
  %6 = getelementptr inbounds i8, ptr %5, i64 8
  %7 = call noundef ptr @_ZNSt8__detail21_Hash_node_value_baseISt4pairIKS1_IPKN4llvm8FunctionENS2_10sampleprof10FunctionIdEEbEE9_M_valptrEv(ptr noundef nonnull align 8 dereferenceable(32) %6) #2
  ret ptr %7
}

; Function Attrs: mustprogress nounwind uwtable
define linkonce_odr noundef zeroext i1 @_ZNSt8__detailneERKNS_19_Node_iterator_baseISt4pairIKS1_IPKN4llvm8FunctionENS2_10sampleprof10FunctionIdEEbELb1EEESD_(ptr noundef nonnull align 8 dereferenceable(8) %0, ptr noundef nonnull align 8 dereferenceable(8) %1) #1 comdat {
  %3 = alloca ptr, align 8
  %4 = alloca ptr, align 8
  store ptr %0, ptr %3, align 8
  store ptr %1, ptr %4, align 8
  %5 = load ptr, ptr %3, align 8
  %6 = getelementptr inbounds nuw %"struct.std::__detail::_Node_iterator_base.423", ptr %5, i32 0, i32 0
  %7 = load ptr, ptr %6, align 8
  %8 = load ptr, ptr %4, align 8
  %9 = getelementptr inbounds nuw %"struct.std::__detail::_Node_iterator_base.423", ptr %8, i32 0, i32 0
  %10 = load ptr, ptr %9, align 8
  %11 = icmp ne ptr %7, %10
  ret i1 %11
}

; Function Attrs: mustprogress nounwind uwtable
define linkonce_odr hidden ptr @_ZNSt13unordered_mapISt4pairIPKN4llvm8FunctionENS1_10sampleprof10FunctionIdEEbNS1_20SampleProfileMatcher24FuncToProfileNameMapHashESt8equal_toIS7_ESaIS0_IKS7_bEEE3endEv(ptr noundef nonnull align 8 dereferenceable(56) %0) #1 comdat align 2 {
  %2 = alloca %"struct.std::__detail::_Node_iterator.422", align 8
  %3 = alloca ptr, align 8
  store ptr %0, ptr %3, align 8
  %4 = load ptr, ptr %3, align 8
  %5 = getelementptr inbounds nuw %"class.std::unordered_map.84", ptr %4, i32 0, i32 0
  %6 = call ptr @_ZNSt10_HashtableISt4pairIPKN4llvm8FunctionENS1_10sampleprof10FunctionIdEES0_IKS7_bESaIS9_ENSt8__detail10_Select1stESt8equal_toIS7_ENS1_20SampleProfileMatcher24FuncToProfileNameMapHashENSB_18_Mod_range_hashingENSB_20_Default_ranged_hashENSB_20_Prime_rehash_policyENSB_17_Hashtable_traitsILb1ELb0ELb1EEEE3endEv(ptr noundef nonnull align 8 dereferenceable(56) %5) #2
  %7 = getelementptr inbounds nuw %"struct.std::__detail::_Node_iterator.422", ptr %2, i32 0, i32 0
  %8 = getelementptr inbounds nuw %"struct.std::__detail::_Node_iterator_base.423", ptr %7, i32 0, i32 0
  store ptr %6, ptr %8, align 8
  %9 = getelementptr inbounds nuw %"struct.std::__detail::_Node_iterator.422", ptr %2, i32 0, i32 0
  %10 = getelementptr inbounds nuw %"struct.std::__detail::_Node_iterator_base.423", ptr %9, i32 0, i32 0
  %11 = load ptr, ptr %10, align 8
  ret ptr %11
}

; Function Attrs: mustprogress nounwind uwtable
define linkonce_odr hidden ptr @_ZNSt13unordered_mapISt4pairIPKN4llvm8FunctionENS1_10sampleprof10FunctionIdEEbNS1_20SampleProfileMatcher24FuncToProfileNameMapHashESt8equal_toIS7_ESaIS0_IKS7_bEEE4findERSC_(ptr noundef nonnull align 8 dereferenceable(56) %0, ptr noundef nonnull align 8 dereferenceable(24) %1) #1 comdat align 2 {
  %3 = alloca %"struct.std::__detail::_Node_iterator.422", align 8
  %4 = alloca ptr, align 8
  %5 = alloca ptr, align 8
  store ptr %0, ptr %4, align 8
  store ptr %1, ptr %5, align 8
  %6 = load ptr, ptr %4, align 8
  %7 = getelementptr inbounds nuw %"class.std::unordered_map.84", ptr %6, i32 0, i32 0
  %8 = load ptr, ptr %5, align 8
  %9 = call ptr @_ZNSt10_HashtableISt4pairIPKN4llvm8FunctionENS1_10sampleprof10FunctionIdEES0_IKS7_bESaIS9_ENSt8__detail10_Select1stESt8equal_toIS7_ENS1_20SampleProfileMatcher24FuncToProfileNameMapHashENSB_18_Mod_range_hashingENSB_20_Default_ranged_hashENSB_20_Prime_rehash_policyENSB_17_Hashtable_traitsILb1ELb0ELb1EEEE4findERS8_(ptr noundef nonnull align 8 dereferenceable(56) %7, ptr noundef nonnull align 8 dereferenceable(24) %8)
  %10 = getelementptr inbounds nuw %"struct.std::__detail::_Node_iterator.422", ptr %3, i32 0, i32 0
  %11 = getelementptr inbounds nuw %"struct.std::__detail::_Node_iterator_base.423", ptr %10, i32 0, i32 0
  store ptr %9, ptr %11, align 8
  %12 = getelementptr inbounds nuw %"struct.std::__detail::_Node_iterator.422", ptr %3, i32 0, i32 0
  %13 = getelementptr inbounds nuw %"struct.std::__detail::_Node_iterator_base.423", ptr %12, i32 0, i32 0
  %14 = load ptr, ptr %13, align 8
  ret ptr %14
}

; Function Attrs: mustprogress nounwind uwtable
define linkonce_odr hidden void @_ZNSt4pairIPKN4llvm8FunctionENS0_10sampleprof10FunctionIdEEC2IPS1_RKS5_TnNSt9enable_ifIXaaclsr5_PCCPE22_MoveConstructiblePairIT_T0_EEclsr5_PCCPE30_ImplicitlyMoveConvertiblePairISC_SD_EEEbE4typeELb1EEEOSC_OSD_(ptr noundef nonnull align 8 dereferenceable(24) %0, ptr noundef nonnull align 8 dereferenceable(8) %1, ptr noundef nonnull align 8 dereferenceable(16) %2) unnamed_addr #1 comdat align 2 {
  %4 = alloca ptr, align 8
  %5 = alloca ptr, align 8
  %6 = alloca ptr, align 8
  store ptr %0, ptr %4, align 8
  store ptr %1, ptr %5, align 8
  store ptr %2, ptr %6, align 8
  %7 = load ptr, ptr %4, align 8
  %8 = getelementptr inbounds nuw %"struct.std::pair.424", ptr %7, i32 0, i32 0
  %9 = load ptr, ptr %5, align 8
  %10 = load ptr, ptr %9, align 8
  store ptr %10, ptr %8, align 8
  %11 = getelementptr inbounds nuw %"struct.std::pair.424", ptr %7, i32 0, i32 1
  %12 = load ptr, ptr %6, align 8
  call void @llvm.memcpy.p0.p0.i64(ptr align 8 %11, ptr align 8 %12, i64 16, i1 false)
  ret void
}

; Function Attrs: mustprogress nounwind uwtable
define dso_local noundef zeroext i1 @_ZN4llvm20SampleProfileMatcher22functionMatchesProfileERNS_8FunctionERKNS_10sampleprof10FunctionIdEb(ptr noundef nonnull align 8 dereferenceable(432) %0, ptr noundef nonnull align 8 dereferenceable(136) %1, ptr noundef nonnull align 8 dereferenceable(16) %2, i1 noundef zeroext %3) #1 align 2 {
  %5 = alloca i1, align 1
  %6 = alloca ptr, align 8
  %7 = alloca ptr, align 8
  %8 = alloca ptr, align 8
  %9 = alloca i8, align 1
  %10 = alloca %"struct.std::__detail::_Node_iterator.422", align 8
  %11 = alloca %"struct.std::pair.424", align 8
  %12 = alloca ptr, align 8
  %13 = alloca %"struct.std::__detail::_Node_iterator.422", align 8
  %14 = alloca i8, align 1
  %15 = alloca %"struct.std::pair.424", align 8
  %16 = alloca ptr, align 8
  %17 = alloca ptr, align 8
  store ptr %0, ptr %6, align 8
  store ptr %1, ptr %7, align 8
  store ptr %2, ptr %8, align 8
  %18 = zext i1 %3 to i8
  store i8 %18, ptr %9, align 1
  %19 = load ptr, ptr %6, align 8
  %20 = getelementptr inbounds nuw %"class.llvm::SampleProfileMatcher", ptr %19, i32 0, i32 8
  %21 = load ptr, ptr %7, align 8
  store ptr %21, ptr %12, align 8
  %22 = load ptr, ptr %8, align 8
  call void @_ZNSt4pairIPKN4llvm8FunctionENS0_10sampleprof10FunctionIdEEC2IPS1_RKS5_TnNSt9enable_ifIXaaclsr5_PCCPE22_MoveConstructiblePairIT_T0_EEclsr5_PCCPE30_ImplicitlyMoveConvertiblePairISC_SD_EEEbE4typeELb1EEEOSC_OSD_(ptr noundef nonnull align 8 dereferenceable(24) %11, ptr noundef nonnull align 8 dereferenceable(8) %12, ptr noundef nonnull align 8 dereferenceable(16) %22)
  %23 = call ptr @_ZNSt13unordered_mapISt4pairIPKN4llvm8FunctionENS1_10sampleprof10FunctionIdEEbNS1_20SampleProfileMatcher24FuncToProfileNameMapHashESt8equal_toIS7_ESaIS0_IKS7_bEEE4findERSC_(ptr noundef nonnull align 8 dereferenceable(56) %20, ptr noundef nonnull align 8 dereferenceable(24) %11)
  %24 = getelementptr inbounds nuw %"struct.std::__detail::_Node_iterator.422", ptr %10, i32 0, i32 0
  %25 = getelementptr inbounds nuw %"struct.std::__detail::_Node_iterator_base.423", ptr %24, i32 0, i32 0
  store ptr %23, ptr %25, align 8
  %26 = getelementptr inbounds nuw %"class.llvm::SampleProfileMatcher", ptr %19, i32 0, i32 8
  %27 = call ptr @_ZNSt13unordered_mapISt4pairIPKN4llvm8FunctionENS1_10sampleprof10FunctionIdEEbNS1_20SampleProfileMatcher24FuncToProfileNameMapHashESt8equal_toIS7_ESaIS0_IKS7_bEEE3endEv(ptr noundef nonnull align 8 dereferenceable(56) %26) #2
  %28 = getelementptr inbounds nuw %"struct.std::__detail::_Node_iterator.422", ptr %13, i32 0, i32 0
  %29 = getelementptr inbounds nuw %"struct.std::__detail::_Node_iterator_base.423", ptr %28, i32 0, i32 0
  store ptr %27, ptr %29, align 8
  %30 = call noundef zeroext i1 @_ZNSt8__detailneERKNS_19_Node_iterator_baseISt4pairIKS1_IPKN4llvm8FunctionENS2_10sampleprof10FunctionIdEEbELb1EEESD_(ptr noundef nonnull align 8 dereferenceable(8) %10, ptr noundef nonnull align 8 dereferenceable(8) %13) #2
  br i1 %30, label %31, label %36

31:                                               ; preds = %4
  %32 = call noundef ptr @_ZNKSt8__detail14_Node_iteratorISt4pairIKS1_IPKN4llvm8FunctionENS2_10sampleprof10FunctionIdEEbELb0ELb1EEptEv(ptr noundef nonnull align 8 dereferenceable(8) %10) #2
  %33 = getelementptr inbounds nuw %"struct.std::pair.426", ptr %32, i32 0, i32 1
  %34 = load i8, ptr %33, align 8
  %35 = trunc i8 %34 to i1
  store i1 %35, ptr %5, align 1
  br label %64

36:                                               ; preds = %4
  %37 = load i8, ptr %9, align 1
  %38 = trunc i8 %37 to i1
  br i1 %38, label %39, label %40

39:                                               ; preds = %36
  store i1 false, ptr %5, align 1
  br label %64

40:                                               ; preds = %36
  %41 = load ptr, ptr %7, align 8
  %42 = load ptr, ptr %8, align 8
  %43 = call noundef zeroext i1 @_ZN4llvm20SampleProfileMatcher28functionMatchesProfileHelperERKNS_8FunctionERKNS_10sampleprof10FunctionIdE(ptr noundef nonnull align 8 dereferenceable(432) %19, ptr noundef nonnull align 8 dereferenceable(136) %41, ptr noundef nonnull align 8 dereferenceable(16) %42)
  %44 = zext i1 %43 to i8
  store i8 %44, ptr %14, align 1
  %45 = load i8, ptr %14, align 1
  %46 = trunc i8 %45 to i1
  %47 = getelementptr inbounds nuw %"class.llvm::SampleProfileMatcher", ptr %19, i32 0, i32 8
  %48 = load ptr, ptr %7, align 8
  store ptr %48, ptr %16, align 8
  %49 = load ptr, ptr %8, align 8
  call void @_ZNSt4pairIPKN4llvm8FunctionENS0_10sampleprof10FunctionIdEEC2IPS1_RKS5_TnNSt9enable_ifIXaaclsr5_PCCPE22_MoveConstructiblePairIT_T0_EEclsr5_PCCPE30_ImplicitlyMoveConvertiblePairISC_SD_EEEbE4typeELb1EEEOSC_OSD_(ptr noundef nonnull align 8 dereferenceable(24) %15, ptr noundef nonnull align 8 dereferenceable(8) %16, ptr noundef nonnull align 8 dereferenceable(16) %49)
  %50 = call noundef nonnull align 1 dereferenceable(1) ptr @_ZNSt13unordered_mapISt4pairIPKN4llvm8FunctionENS1_10sampleprof10FunctionIdEEbNS1_20SampleProfileMatcher24FuncToProfileNameMapHashESt8equal_toIS7_ESaIS0_IKS7_bEEEixEOS7_(ptr noundef nonnull align 8 dereferenceable(56) %47, ptr noundef nonnull align 8 dereferenceable(24) %15)
  %51 = zext i1 %46 to i8
  store i8 %51, ptr %50, align 1
  %52 = load i8, ptr %14, align 1
  %53 = trunc i8 %52 to i1
  br i1 %53, label %54, label %61

54:                                               ; preds = %40
  %55 = load ptr, ptr %8, align 8
  %56 = getelementptr inbounds nuw %"class.llvm::SampleProfileMatcher", ptr %19, i32 0, i32 9
  %57 = load ptr, ptr %7, align 8
  store ptr %57, ptr %17, align 8
  %58 = call noundef nonnull align 8 dereferenceable(16) ptr @_ZNSt13unordered_mapIPN4llvm8FunctionENS0_10sampleprof10FunctionIdESt4hashIS2_ESt8equal_toIS2_ESaISt4pairIKS2_S4_EEEixEOS2_(ptr noundef nonnull align 8 dereferenceable(56) %56, ptr noundef nonnull align 8 dereferenceable(8) %17)
  call void @llvm.memcpy.p0.p0.i64(ptr align 8 %58, ptr align 8 %55, i64 16, i1 false)
  br label %59

59:                                               ; preds = %54
  br label %60

60:                                               ; preds = %59
  br label %61

61:                                               ; preds = %60, %40
  %62 = load i8, ptr %14, align 1
  %63 = trunc i8 %62 to i1
  store i1 %63, ptr %5, align 1
  br label %64

64:                                               ; preds = %61, %39, %31
  %65 = load i1, ptr %5, align 1
  ret i1 %65
}