; Function Attrs: mustprogress nounwind uwtable
define dso_local noundef zeroext i1 @_ZN4llvm20SampleProfileMatcher22functionMatchesProfileERNS_8FunctionERKNS_10sampleprof10FunctionIdEb(ptr noundef nonnull align 8 dereferenceable(432) %0, ptr noundef nonnull align 8 dereferenceable(136) %1, ptr noundef nonnull readonly align 8 captures(none) dereferenceable(16) %2, i1 noundef zeroext %3) local_unnamed_addr #0 align 2 {
  %5 = alloca %"struct.std::pair.424", align 8
  %6 = alloca %"struct.std::pair.424", align 8
  %7 = alloca ptr, align 8
  %8 = getelementptr inbounds nuw i8, ptr %0, i64 144
  store ptr %1, ptr %5, align 8
  %9 = getelementptr inbounds nuw i8, ptr %5, i64 8
  call void @llvm.memcpy.p0.p0.i64(ptr noundef nonnull align 8 dereferenceable(16) %9, ptr noundef nonnull align 8 dereferenceable(16) %2, i64 16, i1 false)
  %10 = call ptr @_ZNSt10_HashtableISt4pairIPKN4llvm8FunctionENS1_10sampleprof10FunctionIdEES0_IKS7_bESaIS9_ENSt8__detail10_Select1stESt8equal_toIS7_ENS1_20SampleProfileMatcher24FuncToProfileNameMapHashENSB_18_Mod_range_hashingENSB_20_Default_ranged_hashENSB_20_Prime_rehash_policyENSB_17_Hashtable_traitsILb1ELb0ELb1EEEE4findERS8_(ptr noundef nonnull align 8 dereferenceable(56) %8, ptr noundef nonnull align 8 dereferenceable(24) %5)
  %.not = icmp eq ptr %10, null
  br i1 %.not, label %15, label %11

11:                                               ; preds = %4
  %12 = getelementptr inbounds nuw i8, ptr %10, i64 32
  %13 = load i8, ptr %12, align 8
  %14 = trunc i8 %13 to i1
  br label %24

15:                                               ; preds = %4
  br i1 %3, label %24, label %16

16:                                               ; preds = %15
  %17 = call noundef zeroext i1 @_ZN4llvm20SampleProfileMatcher28functionMatchesProfileHelperERKNS_8FunctionERKNS_10sampleprof10FunctionIdE(ptr noundef nonnull align 8 dereferenceable(432) %0, ptr noundef nonnull align 8 dereferenceable(136) %1, ptr noundef nonnull align 8 dereferenceable(16) %2)
  %18 = zext i1 %17 to i8
  store ptr %1, ptr %6, align 8
  %19 = getelementptr inbounds nuw i8, ptr %6, i64 8
  call void @llvm.memcpy.p0.p0.i64(ptr noundef nonnull align 8 dereferenceable(16) %19, ptr noundef nonnull align 8 dereferenceable(16) %2, i64 16, i1 false)
  %20 = call noundef nonnull align 1 dereferenceable(1) ptr @_ZNSt8__detail9_Map_baseISt4pairIPKN4llvm8FunctionENS2_10sampleprof10FunctionIdEES1_IKS8_bESaISA_ENS_10_Select1stESt8equal_toIS8_ENS2_20SampleProfileMatcher24FuncToProfileNameMapHashENS_18_Mod_range_hashingENS_20_Default_ranged_hashENS_20_Prime_rehash_policyENS_17_Hashtable_traitsILb1ELb0ELb1EEELb1EEixEOS8_(ptr noundef nonnull align 8 dereferenceable(56) %8, ptr noundef nonnull align 8 dereferenceable(24) %6)
  store i8 %18, ptr %20, align 1
  br i1 %17, label %21, label %24

21:                                               ; preds = %16
  %22 = getelementptr inbounds nuw i8, ptr %0, i64 200
  store ptr %1, ptr %7, align 8
  %23 = call noundef nonnull align 8 dereferenceable(16) ptr @_ZNSt8__detail9_Map_baseIPN4llvm8FunctionESt4pairIKS3_NS1_10sampleprof10FunctionIdEESaIS8_ENS_10_Select1stESt8equal_toIS3_ESt4hashIS3_ENS_18_Mod_range_hashingENS_20_Default_ranged_hashENS_20_Prime_rehash_policyENS_17_Hashtable_traitsILb0ELb0ELb1EEELb1EEixEOS3_(ptr noundef nonnull align 8 dereferenceable(56) %22, ptr noundef nonnull align 8 dereferenceable(8) %7)
  call void @llvm.memcpy.p0.p0.i64(ptr noundef nonnull align 8 dereferenceable(16) %23, ptr noundef nonnull align 8 dereferenceable(16) %2, i64 16, i1 false)
  br label %24

24:                                               ; preds = %16, %21, %15, %11
  %.0 = phi i1 [ %14, %11 ], [ false, %15 ], [ true, %21 ], [ false, %16 ]
  ret i1 %.0
}